target datalayout = "e-m:e-p270:32:32-p271:32:32-p272:64:64-i64:64-i128:128-f80:128-n8:16:32:64-S128"
target triple = "x86_64-unknown-linux-gnu"

%"class.llvh::ilist_node_impl" = type { %"class.llvh::ilist_node_base" }
%"class.llvh::ilist_node_base" = type { ptr, ptr }
%"class.llvh::SMLoc" = type { ptr }
%"class.hermes::Identifier" = type { ptr }
%"class.llvh::SMRange" = type { %"class.llvh::SMLoc", %"class.llvh::SMLoc" }
%"class.hermes::irgen::ESTreeIRGen" = type { ptr, %"class.hermes::IRBuilder", %"class.hermes::IRInstrument", ptr, ptr, ptr, ptr, %"class.hermes::ScopedHashTable", %"class.std::shared_ptr", %"class.hermes::Identifier", %"class.hermes::Identifier", %"class.hermes::Identifier", ptr, ptr, %"class.llvh::DenseMap.2" }
%"class.hermes::IRBuilder" = type { ptr, %"class.llvh::ilist_iterator.0", ptr, %"class.llvh::SMLoc", ptr }
%"class.llvh::ilist_iterator.0" = type { ptr }
%"class.hermes::IRInstrument" = type { i8 }
%"class.hermes::ScopedHashTable" = type { %"class.llvh::DenseMap", ptr }
%"class.llvh::DenseMap" = type <{ ptr, i32, i32, i32, [4 x i8] }>
%"class.std::shared_ptr" = type { %"class.std::__shared_ptr" }
%"class.std::__shared_ptr" = type { ptr, %"class.std::__shared_count" }
%"class.std::__shared_count" = type { ptr }
%"class.llvh::DenseMap.2" = type <{ ptr, i32, i32, i32, [4 x i8] }>
%"class.hermes::ESTree::StatementNode" = type { %"class.hermes::ESTree::Node" }
%"class.hermes::ESTree::Node" = type { %"class.llvh::ilist_node", i32, i32, %"class.llvh::SMRange", %"class.llvh::SMLoc" }
%"class.llvh::ilist_node" = type { %"class.llvh::ilist_node_impl" }
%"class.hermes::irgen::FunctionContext" = type { ptr, ptr, ptr, %"class.hermes::IRBuilder::SaveRestore", %"class.llvh::SmallVector.126", ptr, ptr, ptr, ptr, ptr, %"class.hermes::InternalIdentifierMaker", ptr, ptr, ptr, ptr, %"class.hermes::irgen::EnterBlockScope", %"class.std::optional", %"class.std::optional", %"class.std::optional" }
%"class.hermes::IRBuilder::SaveRestore" = type { ptr, ptr, %"class.llvh::SMLoc" }
%"class.llvh::SmallVector.126" = type { %"class.llvh::SmallVectorImpl.127", %"struct.llvh::SmallVectorStorage.130" }
%"class.llvh::SmallVectorImpl.127" = type { %"class.llvh::SmallVectorTemplateBase.128" }
%"class.llvh::SmallVectorTemplateBase.128" = type { %"class.llvh::SmallVectorTemplateCommon.129" }
%"class.llvh::SmallVectorTemplateCommon.129" = type { %"class.llvh::SmallVectorBase" }
%"class.llvh::SmallVectorBase" = type { ptr, i32, i32 }
%"struct.llvh::SmallVectorStorage.130" = type { [2 x %"struct.llvh::AlignedCharArrayUnion.131"] }
%"struct.llvh::AlignedCharArrayUnion.131" = type { %"struct.llvh::AlignedCharArray.132" }
%"struct.llvh::AlignedCharArray.132" = type { [24 x i8] }
%"class.hermes::InternalIdentifierMaker" = type { ptr, i64 }
%"class.hermes::irgen::EnterBlockScope" = type { ptr, ptr, ptr, ptr, %"class.hermes::ScopedHashTableScope" }
%"class.hermes::ScopedHashTableScope" = type { i32, ptr, ptr, ptr }
%"class.std::optional" = type { %"struct.std::_Optional_base" }
%"struct.std::_Optional_base" = type { %"struct.std::_Optional_payload" }
%"struct.std::_Optional_payload" = type { %"struct.std::_Optional_payload.base", [7 x i8] }
%"struct.std::_Optional_payload.base" = type { %"struct.std::_Optional_payload_base.base" }
%"struct.std::_Optional_payload_base.base" = type <{ %"union.std::_Optional_payload_base<hermes::irgen::EnterBlockScope>::_Storage", i8 }>
%"union.std::_Optional_payload_base<hermes::irgen::EnterBlockScope>::_Storage" = type { %"class.hermes::irgen::EnterBlockScope" }
%"class.hermes::Value" = type { i8, %"class.hermes::Type", %"class.llvh::SmallVector" }
%"class.hermes::Type" = type { i16, i16 }
%"class.llvh::SmallVector" = type { %"class.llvh::SmallVectorImpl", %"struct.llvh::SmallVectorStorage" }
%"class.llvh::SmallVectorImpl" = type { %"class.llvh::SmallVectorTemplateBase" }
%"class.llvh::SmallVectorTemplateBase" = type { %"class.llvh::SmallVectorTemplateCommon" }
%"class.llvh::SmallVectorTemplateCommon" = type { %"class.llvh::SmallVectorBase" }
%"struct.llvh::SmallVectorStorage" = type { [2 x %"struct.llvh::AlignedCharArrayUnion"] }
%"struct.llvh::AlignedCharArrayUnion" = type { %"struct.llvh::AlignedCharArray" }
%"struct.llvh::AlignedCharArray" = type { [8 x i8] }
%"class.llvh::ilist_node_impl.119" = type { %"class.llvh::ilist_node_base" }
%"class.hermes::ESTree::ReturnStatementNode" = type { %"class.hermes::ESTree::StatementNode", ptr }
%"class.hermes::BasicBlock" = type { %"class.llvh::ilist_node_with_parent.133", %"class.hermes::Value", %"class.llvh::iplist.135", ptr }
%"class.llvh::ilist_node_with_parent.133" = type { %"class.llvh::ilist_node.134" }
%"class.llvh::ilist_node.134" = type { %"class.llvh::ilist_node_impl.119" }
%"class.llvh::iplist.135" = type { %"class.llvh::iplist_impl.136" }
%"class.llvh::iplist_impl.136" = type { %"class.llvh::simple_ilist.141" }
%"class.llvh::simple_ilist.141" = type { %"class.llvh::ilist_sentinel.142" }
%"class.llvh::ilist_sentinel.142" = type { %"class.llvh::ilist_node_impl.143" }
%"class.llvh::ilist_node_impl.143" = type { %"class.llvh::ilist_node_base" }

; Function Attrs: mustprogress nounwind uwtable
define linkonce_odr hidden noundef ptr @_ZNK6hermes10BasicBlock9getParentEv(ptr noundef nonnull align 8 dereferenceable(80) %this) #0 comdat align 2 {
entry:
  %this.addr = alloca ptr, align 8
  store ptr %this, ptr %this.addr, align 8
  %this1 = load ptr, ptr %this.addr, align 8
  %Parent = getelementptr inbounds %"class.hermes::BasicBlock", ptr %this1, i32 0, i32 3
  %0 = load ptr, ptr %Parent, align 8
  ret ptr %0
}

; Function Attrs: mustprogress nounwind uwtable
define linkonce_odr hidden noundef ptr @_ZN6hermes5irgen11ESTreeIRGen11curFunctionEv(ptr noundef nonnull align 8 dereferenceable(200) %this) #0 comdat align 2 {
entry:
  %this.addr = alloca ptr, align 8
  store ptr %this, ptr %this.addr, align 8
  %this1 = load ptr, ptr %this.addr, align 8
  %functionContext_ = getelementptr inbounds %"class.hermes::irgen::ESTreeIRGen", ptr %this1, i32 0, i32 6
  %0 = load ptr, ptr %functionContext_, align 8
  ret ptr %0
}

; Function Attrs: mustprogress nounwind uwtable
define linkonce_odr hidden void @_ZN6hermes10IdentifierC2Ev(ptr noundef nonnull align 8 dereferenceable(8) %this) unnamed_addr #0 comdat align 2 {
entry:
  %this.addr = alloca ptr, align 8
  store ptr %this, ptr %this.addr, align 8
  %this1 = load ptr, ptr %this.addr, align 8
  %ptr_ = getelementptr inbounds %"class.hermes::Identifier", ptr %this1, i32 0, i32 0
  store ptr null, ptr %ptr_, align 8
  ret void
}

; Function Attrs: mustprogress nounwind uwtable
define hidden void @_ZN6hermes5irgen11ESTreeIRGen18genReturnStatementEPNS_6ESTree19ReturnStatementNodeE(ptr noundef nonnull align 8 dereferenceable(200) %this, ptr noundef %RetStmt) #0 align 2 {
entry:
  %this.addr = alloca ptr, align 8
  %RetStmt.addr = alloca ptr, align 8
  %Value = alloca ptr, align 8
  %A = alloca ptr, align 8
  %agg.tmp = alloca %"class.hermes::Identifier", align 8
  %Parent = alloca ptr, align 8
  store ptr %this, ptr %this.addr, align 8
  store ptr %RetStmt, ptr %RetStmt.addr, align 8
  %this1 = load ptr, ptr %this.addr, align 8
  br label %do.body

do.body:                                          ; preds = %entry
  br label %do.end

do.end:                                           ; preds = %do.body
  %0 = load ptr, ptr %RetStmt.addr, align 8
  %_argument = getelementptr inbounds %"class.hermes::ESTree::ReturnStatementNode", ptr %0, i32 0, i32 1
  %1 = load ptr, ptr %_argument, align 8
  store ptr %1, ptr %A, align 8
  %2 = load ptr, ptr %A, align 8
  %tobool = icmp ne ptr %2, null
  br i1 %tobool, label %if.then, label %if.else

if.then:                                          ; preds = %do.end
  %3 = load ptr, ptr %A, align 8
  call void @llvm.memset.p0.i64(ptr align 8 %agg.tmp, i8 0, i64 8, i1 false)
  call void @_ZN6hermes10IdentifierC2Ev(ptr noundef nonnull align 8 dereferenceable(8) %agg.tmp) #8
  %coerce.dive = getelementptr inbounds %"class.hermes::Identifier", ptr %agg.tmp, i32 0, i32 0
  %4 = load ptr, ptr %coerce.dive, align 8
  %call = call noundef ptr @_ZN6hermes5irgen11ESTreeIRGen13genExpressionEPNS_6ESTree4NodeENS_10IdentifierE(ptr noundef nonnull align 8 dereferenceable(200) %this1, ptr noundef %3, ptr %4)
  store ptr %call, ptr %Value, align 8
  br label %if.end

if.else:                                          ; preds = %do.end
  %Builder = getelementptr inbounds %"class.hermes::irgen::ESTreeIRGen", ptr %this1, i32 0, i32 1
  %call2 = call noundef ptr @_ZN6hermes9IRBuilder19getLiteralUndefinedEv(ptr noundef nonnull align 8 dereferenceable(40) %Builder)
  store ptr %call2, ptr %Value, align 8
  br label %if.end

if.end:                                           ; preds = %if.else, %if.then
  %call3 = call noundef ptr @_ZN6hermes5irgen11ESTreeIRGen11curFunctionEv(ptr noundef nonnull align 8 dereferenceable(200) %this1)
  %surroundingTry = getelementptr inbounds %"class.hermes::irgen::FunctionContext", ptr %call3, i32 0, i32 6
  %5 = load ptr, ptr %surroundingTry, align 8
  call void @_ZN6hermes5irgen11ESTreeIRGen29genFinallyBeforeControlChangeEPNS0_14SurroundingTryES3_NS0_17ControlFlowChangeEPNS_10BasicBlockE(ptr noundef nonnull align 8 dereferenceable(200) %this1, ptr noundef %5, ptr noundef null, i32 noundef 0, ptr noundef null)
  %Builder4 = getelementptr inbounds %"class.hermes::irgen::ESTreeIRGen", ptr %this1, i32 0, i32 1
  %6 = load ptr, ptr %Value, align 8
  %call5 = call noundef ptr @_ZN6hermes9IRBuilder16createReturnInstEPNS_5ValueE(ptr noundef nonnull align 8 dereferenceable(40) %Builder4, ptr noundef %6)
  %Builder6 = getelementptr inbounds %"class.hermes::irgen::ESTreeIRGen", ptr %this1, i32 0, i32 1
  %call7 = call noundef ptr @_ZN6hermes9IRBuilder17getInsertionBlockEv(ptr noundef nonnull align 8 dereferenceable(40) %Builder6)
  %call8 = call noundef ptr @_ZNK6hermes10BasicBlock9getParentEv(ptr noundef nonnull align 8 dereferenceable(80) %call7)
  store ptr %call8, ptr %Parent, align 8
  %Builder9 = getelementptr inbounds %"class.hermes::irgen::ESTreeIRGen", ptr %this1, i32 0, i32 1
  %Builder10 = getelementptr inbounds %"class.hermes::irgen::ESTreeIRGen", ptr %this1, i32 0, i32 1
  %7 = load ptr, ptr %Parent, align 8
  %call11 = call noundef ptr @_ZN6hermes9IRBuilder16createBasicBlockEPNS_8FunctionE(ptr noundef nonnull align 8 dereferenceable(40) %Builder10, ptr noundef %7)
  call void @_ZN6hermes9IRBuilder17setInsertionBlockEPNS_10BasicBlockE(ptr noundef nonnull align 8 dereferenceable(40) %Builder9, ptr noundef %call11)
  ret void
}