; Function Attrs: mustprogress nounwind uwtable
define hidden void @_ZN6hermes5irgen11ESTreeIRGen18genReturnStatementEPNS_6ESTree19ReturnStatementNodeE(ptr noundef nonnull align 8 dereferenceable(200) %this, ptr noundef readonly captures(none) %RetStmt) local_unnamed_addr #0 align 2 {
entry:
  %_argument = getelementptr inbounds nuw i8, ptr %RetStmt, i64 48
  %0 = load ptr, ptr %_argument, align 8
  %tobool.not = icmp eq ptr %0, null
  br i1 %tobool.not, label %if.else, label %if.then

if.then:                                          ; preds = %entry
  %call = tail call noundef ptr @_ZN6hermes5irgen11ESTreeIRGen13genExpressionEPNS_6ESTree4NodeENS_10IdentifierE(ptr noundef nonnull align 8 dereferenceable(200) %this, ptr noundef nonnull %0, ptr null) #8
  br label %if.end

if.else:                                          ; preds = %entry
  %Builder = getelementptr inbounds nuw i8, ptr %this, i64 8
  %call2 = tail call noundef ptr @_ZN6hermes9IRBuilder19getLiteralUndefinedEv(ptr noundef nonnull align 8 dereferenceable(40) %Builder) #8
  br label %if.end

if.end:                                           ; preds = %if.else, %if.then
  %Value.0 = phi ptr [ %call, %if.then ], [ %call2, %if.else ]
  %functionContext_.i = getelementptr inbounds nuw i8, ptr %this, i64 80
  %1 = load ptr, ptr %functionContext_.i, align 8
  %surroundingTry = getelementptr inbounds nuw i8, ptr %1, i64 120
  %2 = load ptr, ptr %surroundingTry, align 8
  tail call void @_ZN6hermes5irgen11ESTreeIRGen29genFinallyBeforeControlChangeEPNS0_14SurroundingTryES3_NS0_17ControlFlowChangeEPNS_10BasicBlockE(ptr noundef nonnull align 8 dereferenceable(200) %this, ptr noundef %2, ptr noundef null, i32 noundef 0, ptr noundef null) #8
  %Builder4 = getelementptr inbounds nuw i8, ptr %this, i64 8
  %call5 = tail call noundef ptr @_ZN6hermes9IRBuilder16createReturnInstEPNS_5ValueE(ptr noundef nonnull align 8 dereferenceable(40) %Builder4, ptr noundef %Value.0) #8
  %call7 = tail call noundef ptr @_ZN6hermes9IRBuilder17getInsertionBlockEv(ptr noundef nonnull align 8 dereferenceable(40) %Builder4) #8
  %Parent.i = getelementptr inbounds nuw i8, ptr %call7, i64 72
  %3 = load ptr, ptr %Parent.i, align 8
  %call11 = tail call noundef ptr @_ZN6hermes9IRBuilder16createBasicBlockEPNS_8FunctionE(ptr noundef nonnull align 8 dereferenceable(40) %Builder4, ptr noundef %3) #8
  tail call void @_ZN6hermes9IRBuilder17setInsertionBlockEPNS_10BasicBlockE(ptr noundef nonnull align 8 dereferenceable(40) %Builder4, ptr noundef %call11) #8
  ret void
}